target datalayout = "e-m:e-p270:32:32-p271:32:32-p272:64:64-i64:64-i128:128-f80:128-n8:16:32:64-S128"
target triple = "x86_64-pc-linux-gnu"

%struct.fdt_header = type { i32, i32, i32, i32, i32, i32, i32, i32, i32, i32 }

; Function Attrs: inlinehint nounwind uwtable
define internal i32 @cpu_to_fdt32(i32 noundef %0) #3 {
  %2 = alloca i32, align 4
  store i32 %0, ptr %2, align 4
  %3 = getelementptr inbounds i8, ptr %2, i64 0
  %4 = load i8, ptr %3, align 4
  %5 = zext i8 %4 to i64
  %6 = shl i64 %5, 24
  %7 = getelementptr inbounds i8, ptr %2, i64 1
  %8 = load i8, ptr %7, align 1
  %9 = zext i8 %8 to i64
  %10 = shl i64 %9, 16
  %11 = or i64 %6, %10
  %12 = getelementptr inbounds i8, ptr %2, i64 2
  %13 = load i8, ptr %12, align 2
  %14 = zext i8 %13 to i64
  %15 = shl i64 %14, 8
  %16 = or i64 %11, %15
  %17 = getelementptr inbounds i8, ptr %2, i64 3
  %18 = load i8, ptr %17, align 1
  %19 = zext i8 %18 to i64
  %20 = or i64 %16, %19
  %21 = trunc i64 %20 to i32
  ret i32 %21
}

; Function Attrs: inlinehint nounwind uwtable
define internal void @fdt_set_size_dt_strings(ptr noundef %0, i32 noundef %1) #3 {
  %3 = alloca ptr, align 8
  %4 = alloca i32, align 4
  %5 = alloca ptr, align 8
  store ptr %0, ptr %3, align 8
  store i32 %1, ptr %4, align 4
  call void @llvm.lifetime.start.p0(i64 8, ptr %5) #7
  %6 = load ptr, ptr %3, align 8
  store ptr %6, ptr %5, align 8
  %7 = load i32, ptr %4, align 4
  %8 = call i32 @cpu_to_fdt32(i32 noundef %7)
  %9 = load ptr, ptr %5, align 8
  %10 = getelementptr inbounds nuw %struct.fdt_header, ptr %9, i32 0, i32 8
  store i32 %8, ptr %10, align 4
  call void @llvm.lifetime.end.p0(i64 8, ptr %5) #7
  ret void
}

; Function Attrs: inlinehint nounwind uwtable
define internal i32 @fdt32_ld(ptr noundef %0) #3 {
  %2 = alloca ptr, align 8
  %3 = alloca ptr, align 8
  store ptr %0, ptr %2, align 8
  call void @llvm.lifetime.start.p0(i64 8, ptr %3) #7
  %4 = load ptr, ptr %2, align 8
  store ptr %4, ptr %3, align 8
  %5 = load ptr, ptr %3, align 8
  %6 = getelementptr inbounds i8, ptr %5, i64 0
  %7 = load i8, ptr %6, align 1
  %8 = zext i8 %7 to i32
  %9 = shl i32 %8, 24
  %10 = load ptr, ptr %3, align 8
  %11 = getelementptr inbounds i8, ptr %10, i64 1
  %12 = load i8, ptr %11, align 1
  %13 = zext i8 %12 to i32
  %14 = shl i32 %13, 16
  %15 = or i32 %9, %14
  %16 = load ptr, ptr %3, align 8
  %17 = getelementptr inbounds i8, ptr %16, i64 2
  %18 = load i8, ptr %17, align 1
  %19 = zext i8 %18 to i32
  %20 = shl i32 %19, 8
  %21 = or i32 %15, %20
  %22 = load ptr, ptr %3, align 8
  %23 = getelementptr inbounds i8, ptr %22, i64 3
  %24 = load i8, ptr %23, align 1
  %25 = zext i8 %24 to i32
  %26 = or i32 %21, %25
  call void @llvm.lifetime.end.p0(i64 8, ptr %3) #7
  ret i32 %26
}

; Function Attrs: nounwind uwtable
define internal i32 @fdt_add_string_(ptr noundef %0, ptr noundef %1) #0 {
  %3 = alloca i32, align 4
  %4 = alloca ptr, align 8
  %5 = alloca ptr, align 8
  %6 = alloca ptr, align 8
  %7 = alloca i32, align 4
  %8 = alloca i32, align 4
  %9 = alloca i32, align 4
  %10 = alloca i32, align 4
  %11 = alloca i32, align 4
  store ptr %0, ptr %4, align 8
  store ptr %1, ptr %5, align 8
  call void @llvm.lifetime.start.p0(i64 8, ptr %6) #7
  %12 = load ptr, ptr %4, align 8
  %13 = load ptr, ptr %4, align 8
  %14 = getelementptr inbounds nuw %struct.fdt_header, ptr %13, i32 0, i32 1
  %15 = call i32 @fdt32_ld(ptr noundef %14)
  %16 = zext i32 %15 to i64
  %17 = getelementptr inbounds nuw i8, ptr %12, i64 %16
  store ptr %17, ptr %6, align 8
  call void @llvm.lifetime.start.p0(i64 4, ptr %7) #7
  %18 = load ptr, ptr %4, align 8
  %19 = getelementptr inbounds nuw %struct.fdt_header, ptr %18, i32 0, i32 8
  %20 = call i32 @fdt32_ld(ptr noundef %19)
  store i32 %20, ptr %7, align 4
  call void @llvm.lifetime.start.p0(i64 4, ptr %8) #7
  %21 = load ptr, ptr %5, align 8
  %22 = call i64 @strlen(ptr noundef %21) #8
  %23 = add i64 %22, 1
  %24 = trunc i64 %23 to i32
  store i32 %24, ptr %8, align 4
  call void @llvm.lifetime.start.p0(i64 4, ptr %9) #7
  store i32 0, ptr %9, align 4, !annotation !4
  call void @llvm.lifetime.start.p0(i64 4, ptr %10) #7
  store i32 0, ptr %10, align 4, !annotation !4
  %25 = load i32, ptr %7, align 4
  %26 = load i32, ptr %8, align 4
  %27 = add i32 %25, %26
  store i32 %27, ptr %10, align 4
  %28 = load ptr, ptr %4, align 8
  %29 = getelementptr inbounds nuw %struct.fdt_header, ptr %28, i32 0, i32 2
  %30 = call i32 @fdt32_ld(ptr noundef %29)
  %31 = load ptr, ptr %4, align 8
  %32 = getelementptr inbounds nuw %struct.fdt_header, ptr %31, i32 0, i32 9
  %33 = call i32 @fdt32_ld(ptr noundef %32)
  %34 = add i32 %30, %33
  store i32 %34, ptr %9, align 4
  %35 = load ptr, ptr %4, align 8
  %36 = getelementptr inbounds nuw %struct.fdt_header, ptr %35, i32 0, i32 1
  %37 = call i32 @fdt32_ld(ptr noundef %36)
  %38 = load i32, ptr %10, align 4
  %39 = sub i32 %37, %38
  %40 = load i32, ptr %9, align 4
  %41 = icmp ult i32 %39, %40
  br i1 %41, label %42, label %43

42:                                               ; preds = %2
  store i32 0, ptr %3, align 4
  store i32 1, ptr %11, align 4
  br label %58

43:                                               ; preds = %2
  %44 = load ptr, ptr %6, align 8
  %45 = load i32, ptr %10, align 4
  %46 = zext i32 %45 to i64
  %47 = sub i64 0, %46
  %48 = getelementptr inbounds i8, ptr %44, i64 %47
  %49 = load ptr, ptr %5, align 8
  %50 = load i32, ptr %8, align 4
  %51 = zext i32 %50 to i64
  call void @llvm.memcpy.p0.p0.i64(ptr align 1 %48, ptr align 1 %49, i64 %51, i1 false)
  %52 = load ptr, ptr %4, align 8
  %53 = load i32, ptr %7, align 4
  %54 = load i32, ptr %8, align 4
  %55 = add i32 %53, %54
  call void @fdt_set_size_dt_strings(ptr noundef %52, i32 noundef %55)
  %56 = load i32, ptr %10, align 4
  %57 = sub i32 0, %56
  store i32 %57, ptr %3, align 4
  store i32 1, ptr %11, align 4
  br label %58

58:                                               ; preds = %43, %42
  call void @llvm.lifetime.end.p0(i64 4, ptr %10) #7
  call void @llvm.lifetime.end.p0(i64 4, ptr %9) #7
  call void @llvm.lifetime.end.p0(i64 4, ptr %8) #7
  call void @llvm.lifetime.end.p0(i64 4, ptr %7) #7
  call void @llvm.lifetime.end.p0(i64 8, ptr %6) #7
  %59 = load i32, ptr %3, align 4
  ret i32 %59
}