; Function Attrs: mustprogress nofree nounwind willreturn memory(argmem: readwrite) uwtable
define internal fastcc i32 @fdt_add_string_(ptr noundef captures(none) %0, ptr noundef readonly captures(none) %1) unnamed_addr #5 {
  %3 = getelementptr inbounds nuw i8, ptr %0, i64 4
  %4 = load i8, ptr %3, align 1
  %5 = zext i8 %4 to i32
  %6 = shl nuw i32 %5, 24
  %7 = getelementptr inbounds nuw i8, ptr %0, i64 5
  %8 = load i8, ptr %7, align 1
  %9 = zext i8 %8 to i32
  %10 = shl nuw nsw i32 %9, 16
  %11 = or disjoint i32 %10, %6
  %12 = getelementptr inbounds nuw i8, ptr %0, i64 6
  %13 = load i8, ptr %12, align 1
  %14 = zext i8 %13 to i32
  %15 = shl nuw nsw i32 %14, 8
  %16 = or disjoint i32 %11, %15
  %17 = getelementptr inbounds nuw i8, ptr %0, i64 7
  %18 = load i8, ptr %17, align 1
  %19 = zext i8 %18 to i32
  %20 = or disjoint i32 %16, %19
  %21 = getelementptr inbounds nuw i8, ptr %0, i64 32
  %22 = load i8, ptr %21, align 1
  %23 = zext i8 %22 to i32
  %24 = shl nuw i32 %23, 24
  %25 = getelementptr inbounds nuw i8, ptr %0, i64 33
  %26 = load i8, ptr %25, align 1
  %27 = zext i8 %26 to i32
  %28 = shl nuw nsw i32 %27, 16
  %29 = or disjoint i32 %28, %24
  %30 = getelementptr inbounds nuw i8, ptr %0, i64 34
  %31 = load i8, ptr %30, align 1
  %32 = zext i8 %31 to i32
  %33 = shl nuw nsw i32 %32, 8
  %34 = or disjoint i32 %29, %33
  %35 = getelementptr inbounds nuw i8, ptr %0, i64 35
  %36 = load i8, ptr %35, align 1
  %37 = zext i8 %36 to i32
  %38 = or disjoint i32 %34, %37
  %39 = tail call i64 @strlen(ptr noundef nonnull dereferenceable(1) %1) #10
  %40 = trunc i64 %39 to i32
  %41 = add i32 %40, 1
  %42 = add i32 %38, %41
  %43 = getelementptr inbounds nuw i8, ptr %0, i64 8
  %44 = load i8, ptr %43, align 1
  %45 = zext i8 %44 to i32
  %46 = shl nuw i32 %45, 24
  %47 = getelementptr inbounds nuw i8, ptr %0, i64 9
  %48 = load i8, ptr %47, align 1
  %49 = zext i8 %48 to i32
  %50 = shl nuw nsw i32 %49, 16
  %51 = or disjoint i32 %50, %46
  %52 = getelementptr inbounds nuw i8, ptr %0, i64 10
  %53 = load i8, ptr %52, align 1
  %54 = zext i8 %53 to i32
  %55 = shl nuw nsw i32 %54, 8
  %56 = or disjoint i32 %51, %55
  %57 = getelementptr inbounds nuw i8, ptr %0, i64 11
  %58 = load i8, ptr %57, align 1
  %59 = zext i8 %58 to i32
  %60 = or disjoint i32 %56, %59
  %61 = getelementptr inbounds nuw i8, ptr %0, i64 36
  %62 = load i8, ptr %61, align 1
  %63 = zext i8 %62 to i32
  %64 = shl nuw i32 %63, 24
  %65 = getelementptr inbounds nuw i8, ptr %0, i64 37
  %66 = load i8, ptr %65, align 1
  %67 = zext i8 %66 to i32
  %68 = shl nuw nsw i32 %67, 16
  %69 = or disjoint i32 %68, %64
  %70 = getelementptr inbounds nuw i8, ptr %0, i64 38
  %71 = load i8, ptr %70, align 1
  %72 = zext i8 %71 to i32
  %73 = shl nuw nsw i32 %72, 8
  %74 = or disjoint i32 %69, %73
  %75 = getelementptr inbounds nuw i8, ptr %0, i64 39
  %76 = load i8, ptr %75, align 1
  %77 = zext i8 %76 to i32
  %78 = or disjoint i32 %74, %77
  %79 = add i32 %78, %60
  %80 = sub i32 %20, %42
  %81 = icmp ult i32 %80, %79
  br i1 %81, label %90, label %82

82:                                               ; preds = %2
  %83 = zext i32 %20 to i64
  %84 = getelementptr inbounds nuw i8, ptr %0, i64 %83
  %85 = zext i32 %42 to i64
  %86 = sub nsw i64 0, %85
  %87 = getelementptr inbounds i8, ptr %84, i64 %86
  %88 = zext i32 %41 to i64
  tail call void @llvm.memcpy.p0.p0.i64(ptr align 1 %87, ptr nonnull align 1 %1, i64 %88, i1 false)
  %rev.i.i = tail call noundef i32 @llvm.bswap.i32(i32 %42)
  store i32 %rev.i.i, ptr %21, align 4
  %89 = sub i32 0, %42
  br label %90

90:                                               ; preds = %2, %82
  %.0 = phi i32 [ %89, %82 ], [ 0, %2 ]
  ret i32 %.0
}